target datalayout = "e-m:e-p270:32:32-p271:32:32-p272:64:64-i64:64-i128:128-f80:128-n8:16:32:64-S128"
target triple = "x86_64-pc-linux-gnu"

%class.Sample_TileMesh = type <{ %class.Sample, i8, i8, [2 x i8], float, ptr, ptr, ptr, ptr, ptr, ptr, %struct.rcConfig, i32, i32, i32, float, i32, [3 x float], [3 x float], float, float, i32, [4 x i8] }>
%class.Sample = type { ptr, ptr, ptr, ptr, ptr, i8, float, float, float, float, float, float, float, float, float, float, float, float, float, i32, i8, i8, i8, ptr, [9 x ptr], ptr, %class.SampleDebugDraw }
%class.SampleDebugDraw = type { %class.DebugDrawGL }
%class.DebugDrawGL = type { %struct.duDebugDraw }
%struct.duDebugDraw = type { ptr }
%struct.rcConfig = type { i32, i32, i32, i32, float, float, [3 x float], [3 x float], float, i32, i32, i32, i32, float, i32, i32, i32, float, float }

@.str.39 = private unnamed_addr constant [25 x i8] c"%.3fms / %dTris / %.1fkB\00", align 1

; Function Attrs: mustprogress nounwind uwtable
define linkonce_odr dso_local noundef i32 @_Z9imguiRGBAhhhh(i8 noundef zeroext %0, i8 noundef zeroext %1, i8 noundef zeroext %2, i8 noundef zeroext %3) #0 comdat {
  %5 = alloca i8, align 1
  %6 = alloca i8, align 1
  %7 = alloca i8, align 1
  %8 = alloca i8, align 1
  store i8 %0, ptr %5, align 1
  store i8 %1, ptr %6, align 1
  store i8 %2, ptr %7, align 1
  store i8 %3, ptr %8, align 1
  %9 = load i8, ptr %5, align 1
  %10 = zext i8 %9 to i32
  %11 = load i8, ptr %6, align 1
  %12 = zext i8 %11 to i32
  %13 = shl i32 %12, 8
  %14 = or i32 %10, %13
  %15 = load i8, ptr %7, align 1
  %16 = zext i8 %15 to i32
  %17 = shl i32 %16, 16
  %18 = or i32 %14, %17
  %19 = load i8, ptr %8, align 1
  %20 = zext i8 %19 to i32
  %21 = shl i32 %20, 24
  %22 = or i32 %18, %21
  ret i32 %22
}

; Function Attrs: mustprogress uwtable
define dso_local void @_ZN15Sample_TileMesh19handleRenderOverlayEPdS0_Pi(ptr noundef nonnull align 8 dereferenceable(404) %0, ptr noundef %1, ptr noundef %2, ptr noundef %3) unnamed_addr #3 align 2 {
  %5 = alloca ptr, align 8
  %6 = alloca ptr, align 8
  %7 = alloca ptr, align 8
  %8 = alloca ptr, align 8
  %9 = alloca double, align 8
  %10 = alloca double, align 8
  %11 = alloca double, align 8
  %12 = alloca [32 x i8], align 16
  store ptr %0, ptr %5, align 8
  store ptr %1, ptr %6, align 8
  store ptr %2, ptr %7, align 8
  store ptr %3, ptr %8, align 8
  %13 = load ptr, ptr %5, align 8
  %14 = getelementptr inbounds %class.Sample_TileMesh, ptr %13, i32 0, i32 19
  %15 = load float, ptr %14, align 8
  %16 = fcmp ogt float %15, 0.000000e+00
  br i1 %16, label %17, label %68

17:                                               ; preds = %4
  %18 = getelementptr inbounds %class.Sample_TileMesh, ptr %13, i32 0, i32 17
  %19 = getelementptr inbounds [3 x float], ptr %18, i64 0, i64 0
  %20 = load float, ptr %19, align 8
  %21 = getelementptr inbounds %class.Sample_TileMesh, ptr %13, i32 0, i32 18
  %22 = getelementptr inbounds [3 x float], ptr %21, i64 0, i64 0
  %23 = load float, ptr %22, align 4
  %24 = fadd float %20, %23
  %25 = fpext float %24 to double
  %26 = fdiv double %25, 2.000000e+00
  %27 = getelementptr inbounds %class.Sample_TileMesh, ptr %13, i32 0, i32 17
  %28 = getelementptr inbounds [3 x float], ptr %27, i64 0, i64 1
  %29 = load float, ptr %28, align 4
  %30 = getelementptr inbounds %class.Sample_TileMesh, ptr %13, i32 0, i32 18
  %31 = getelementptr inbounds [3 x float], ptr %30, i64 0, i64 1
  %32 = load float, ptr %31, align 4
  %33 = fadd float %29, %32
  %34 = fpext float %33 to double
  %35 = fdiv double %34, 2.000000e+00
  %36 = getelementptr inbounds %class.Sample_TileMesh, ptr %13, i32 0, i32 17
  %37 = getelementptr inbounds [3 x float], ptr %36, i64 0, i64 2
  %38 = load float, ptr %37, align 8
  %39 = getelementptr inbounds %class.Sample_TileMesh, ptr %13, i32 0, i32 18
  %40 = getelementptr inbounds [3 x float], ptr %39, i64 0, i64 2
  %41 = load float, ptr %40, align 4
  %42 = fadd float %38, %41
  %43 = fpext float %42 to double
  %44 = fdiv double %43, 2.000000e+00
  %45 = load ptr, ptr %7, align 8
  %46 = load ptr, ptr %6, align 8
  %47 = load ptr, ptr %8, align 8
  %48 = call i32 @gluProject(double noundef %26, double noundef %35, double noundef %44, ptr noundef %45, ptr noundef %46, ptr noundef %47, ptr noundef %9, ptr noundef %10, ptr noundef %11)
  %49 = icmp ne i32 %48, 0
  br i1 %49, label %50, label %68

50:                                               ; preds = %17
  %51 = getelementptr inbounds [32 x i8], ptr %12, i64 0, i64 0
  %52 = getelementptr inbounds %class.Sample_TileMesh, ptr %13, i32 0, i32 19
  %53 = load float, ptr %52, align 8
  %54 = fpext float %53 to double
  %55 = getelementptr inbounds %class.Sample_TileMesh, ptr %13, i32 0, i32 21
  %56 = load i32, ptr %55, align 8
  %57 = getelementptr inbounds %class.Sample_TileMesh, ptr %13, i32 0, i32 20
  %58 = load float, ptr %57, align 4
  %59 = fpext float %58 to double
  %60 = call i32 (ptr, i64, ptr, ...) @snprintf(ptr noundef %51, i64 noundef 32, ptr noundef @.str.39, double noundef %54, i32 noundef %56, double noundef %59) #9
  %61 = load double, ptr %9, align 8
  %62 = fptosi double %61 to i32
  %63 = load double, ptr %10, align 8
  %64 = fptosi double %63 to i32
  %65 = sub nsw i32 %64, 25
  %66 = getelementptr inbounds [32 x i8], ptr %12, i64 0, i64 0
  %67 = call noundef i32 @_Z9imguiRGBAhhhh(i8 noundef zeroext 0, i8 noundef zeroext 0, i8 noundef zeroext 0, i8 noundef zeroext -36)
  call void @_Z13imguiDrawTextiiiPKcj(i32 noundef %62, i32 noundef %65, i32 noundef 1, ptr noundef %66, i32 noundef %67)
  br label %68

68:                                               ; preds = %50, %17, %4
  %69 = getelementptr inbounds %class.Sample, ptr %13, i32 0, i32 23
  %70 = load ptr, ptr %69, align 8
  %71 = icmp ne ptr %70, null
  br i1 %71, label %72, label %81

72:                                               ; preds = %68
  %73 = getelementptr inbounds %class.Sample, ptr %13, i32 0, i32 23
  %74 = load ptr, ptr %73, align 8
  %75 = load ptr, ptr %6, align 8
  %76 = load ptr, ptr %7, align 8
  %77 = load ptr, ptr %8, align 8
  %78 = load ptr, ptr %74, align 8
  %79 = getelementptr inbounds ptr, ptr %78, i64 8
  %80 = load ptr, ptr %79, align 8
  call void %80(ptr noundef nonnull align 8 dereferenceable(8) %74, ptr noundef %75, ptr noundef %76, ptr noundef %77)
  br label %81

81:                                               ; preds = %72, %68
  %82 = load ptr, ptr %6, align 8
  %83 = load ptr, ptr %7, align 8
  %84 = load ptr, ptr %8, align 8
  call void @_ZN6Sample23renderOverlayToolStatesEPdS0_Pi(ptr noundef nonnull align 8 dereferenceable(200) %13, ptr noundef %82, ptr noundef %83, ptr noundef %84)
  ret void
}