; Function Attrs: mustprogress uwtable
define dso_local void @_ZN15Sample_TileMesh19handleRenderOverlayEPdS0_Pi(ptr noundef nonnull align 8 dereferenceable(404) %0, ptr noundef %1, ptr noundef %2, ptr noundef %3) unnamed_addr #3 align 2 {
  %5 = alloca double, align 8
  %6 = alloca double, align 8
  %7 = alloca double, align 8
  %8 = alloca [32 x i8], align 16
  %9 = getelementptr inbounds i8, ptr %0, i64 392
  %10 = load float, ptr %9, align 8
  %11 = fcmp ogt float %10, 0.000000e+00
  br i1 %11, label %12, label %49

12:                                               ; preds = %4
  %13 = getelementptr inbounds i8, ptr %0, i64 368
  %14 = load float, ptr %13, align 8
  %15 = getelementptr inbounds i8, ptr %0, i64 380
  %16 = load float, ptr %15, align 4
  %17 = fadd float %14, %16
  %18 = fpext float %17 to double
  %19 = fmul double %18, 5.000000e-01
  %20 = getelementptr inbounds i8, ptr %0, i64 372
  %21 = load float, ptr %20, align 4
  %22 = getelementptr inbounds i8, ptr %0, i64 384
  %23 = load float, ptr %22, align 8
  %24 = fadd float %21, %23
  %25 = fpext float %24 to double
  %26 = fmul double %25, 5.000000e-01
  %27 = getelementptr inbounds i8, ptr %0, i64 376
  %28 = load float, ptr %27, align 8
  %29 = getelementptr inbounds i8, ptr %0, i64 388
  %30 = load float, ptr %29, align 4
  %31 = fadd float %28, %30
  %32 = fpext float %31 to double
  %33 = fmul double %32, 5.000000e-01
  %34 = call i32 @gluProject(double noundef %19, double noundef %26, double noundef %33, ptr noundef %2, ptr noundef %1, ptr noundef %3, ptr noundef nonnull %5, ptr noundef nonnull %6, ptr noundef nonnull %7)
  %.not = icmp eq i32 %34, 0
  br i1 %.not, label %49, label %35

35:                                               ; preds = %12
  %36 = load float, ptr %9, align 8
  %37 = fpext float %36 to double
  %38 = getelementptr inbounds i8, ptr %0, i64 400
  %39 = load i32, ptr %38, align 8
  %40 = getelementptr inbounds i8, ptr %0, i64 396
  %41 = load float, ptr %40, align 4
  %42 = fpext float %41 to double
  %43 = call i32 (ptr, i64, ptr, ...) @snprintf(ptr noundef nonnull dereferenceable(1) %8, i64 noundef 32, ptr noundef nonnull @.str.39, double noundef %37, i32 noundef %39, double noundef %42) #12
  %44 = load double, ptr %5, align 8
  %45 = fptosi double %44 to i32
  %46 = load double, ptr %6, align 8
  %47 = fptosi double %46 to i32
  %48 = add nsw i32 %47, -25
  call void @_Z13imguiDrawTextiiiPKcj(i32 noundef %45, i32 noundef %48, i32 noundef 1, ptr noundef nonnull %8, i32 noundef -603979776)
  br label %49

49:                                               ; preds = %35, %12, %4
  %50 = getelementptr inbounds i8, ptr %0, i64 104
  %51 = load ptr, ptr %50, align 8
  %.not10 = icmp eq ptr %51, null
  br i1 %.not10, label %56, label %52

52:                                               ; preds = %49
  %53 = load ptr, ptr %51, align 8
  %54 = getelementptr inbounds i8, ptr %53, i64 64
  %55 = load ptr, ptr %54, align 8
  call void %55(ptr noundef nonnull align 8 dereferenceable(8) %51, ptr noundef %1, ptr noundef %2, ptr noundef %3)
  br label %56

56:                                               ; preds = %52, %49
  call void @_ZN6Sample23renderOverlayToolStatesEPdS0_Pi(ptr noundef nonnull align 8 dereferenceable(200) %0, ptr noundef %1, ptr noundef %2, ptr noundef %3)
  ret void
}